
K_1.elf:     file format elf32-littleriscv


Disassembly of section .text:

00010054 <.text>:
   10054:	fd010113          	addi	sp,sp,-48
   10058:	02112623          	sw	ra,44(sp)
   1005c:	02812423          	sw	s0,40(sp)
   10060:	03010413          	addi	s0,sp,48
   10064:	00100793          	li	a5,1
   10068:	fef42623          	sw	a5,-20(s0)
   1006c:	00500793          	li	a5,5
   10070:	fcf42e23          	sw	a5,-36(s0)
   10074:	fe042223          	sw	zero,-28(s0)
   10078:	0d40006f          	j	0x1014c
   1007c:	00100793          	li	a5,1
   10080:	fef42423          	sw	a5,-24(s0)
   10084:	01c0006f          	j	0x100a0
   10088:	00000517          	auipc	a0,0x0
   1008c:	6f450513          	addi	a0,a0,1780 # 0x1077c
   10090:	2ac000ef          	jal	ra,0x1033c
   10094:	fe842783          	lw	a5,-24(s0)
   10098:	00178793          	addi	a5,a5,1
   1009c:	fef42423          	sw	a5,-24(s0)
   100a0:	fdc42703          	lw	a4,-36(s0)
   100a4:	fe442783          	lw	a5,-28(s0)
   100a8:	40f707b3          	sub	a5,a4,a5
   100ac:	fe842703          	lw	a4,-24(s0)
   100b0:	fce7dce3          	bge	a5,a4,0x10088
   100b4:	fe042023          	sw	zero,-32(s0)
   100b8:	0700006f          	j	0x10128
   100bc:	fe042783          	lw	a5,-32(s0)
   100c0:	00078663          	beqz	a5,0x100cc
   100c4:	fe442783          	lw	a5,-28(s0)
   100c8:	00079863          	bnez	a5,0x100d8
   100cc:	00100793          	li	a5,1
   100d0:	fef42623          	sw	a5,-20(s0)
   100d4:	0380006f          	j	0x1010c
   100d8:	fe442703          	lw	a4,-28(s0)
   100dc:	fe042783          	lw	a5,-32(s0)
   100e0:	40f707b3          	sub	a5,a4,a5
   100e4:	00178793          	addi	a5,a5,1
   100e8:	fec42583          	lw	a1,-20(s0)
   100ec:	00078513          	mv	a0,a5
   100f0:	5b4000ef          	jal	ra,0x106a4
   100f4:	00050793          	mv	a5,a0
   100f8:	fe042583          	lw	a1,-32(s0)
   100fc:	00078513          	mv	a0,a5
   10100:	5c8000ef          	jal	ra,0x106c8
   10104:	00050793          	mv	a5,a0
   10108:	fef42623          	sw	a5,-20(s0)
   1010c:	fec42583          	lw	a1,-20(s0)
   10110:	00000517          	auipc	a0,0x0
   10114:	67050513          	addi	a0,a0,1648 # 0x10780
   10118:	224000ef          	jal	ra,0x1033c
   1011c:	fe042783          	lw	a5,-32(s0)
   10120:	00178793          	addi	a5,a5,1
   10124:	fef42023          	sw	a5,-32(s0)
   10128:	fe042703          	lw	a4,-32(s0)
   1012c:	fe442783          	lw	a5,-28(s0)
   10130:	f8e7d6e3          	bge	a5,a4,0x100bc
   10134:	00000517          	auipc	a0,0x0
   10138:	65450513          	addi	a0,a0,1620 # 0x10788
   1013c:	200000ef          	jal	ra,0x1033c
   10140:	fe442783          	lw	a5,-28(s0)
   10144:	00178793          	addi	a5,a5,1
   10148:	fef42223          	sw	a5,-28(s0)
   1014c:	fe442703          	lw	a4,-28(s0)
   10150:	fdc42783          	lw	a5,-36(s0)
   10154:	f2f744e3          	blt	a4,a5,0x1007c
   10158:	0000006f          	j	0x10158
   1015c:	fe010113          	addi	sp,sp,-32
   10160:	00812e23          	sw	s0,28(sp)
   10164:	02010413          	addi	s0,sp,32
   10168:	fea42623          	sw	a0,-20(s0)
   1016c:	e00017b7          	lui	a5,0xe0001
   10170:	03078793          	addi	a5,a5,48 # 0xe0001030
   10174:	fec42703          	lw	a4,-20(s0)
   10178:	00e7a023          	sw	a4,0(a5)
   1017c:	00000013          	nop
   10180:	01c12403          	lw	s0,28(sp)
   10184:	02010113          	addi	sp,sp,32
   10188:	00008067          	ret
   1018c:	fe010113          	addi	sp,sp,-32
   10190:	00112e23          	sw	ra,28(sp)
   10194:	00812c23          	sw	s0,24(sp)
   10198:	02010413          	addi	s0,sp,32
   1019c:	fea42623          	sw	a0,-20(s0)
   101a0:	01c0006f          	j	0x101bc
   101a4:	fec42783          	lw	a5,-20(s0)
   101a8:	00178713          	addi	a4,a5,1
   101ac:	fee42623          	sw	a4,-20(s0)
   101b0:	0007c783          	lbu	a5,0(a5)
   101b4:	00078513          	mv	a0,a5
   101b8:	fa5ff0ef          	jal	ra,0x1015c
   101bc:	fec42783          	lw	a5,-20(s0)
   101c0:	0007c783          	lbu	a5,0(a5)
   101c4:	fe0790e3          	bnez	a5,0x101a4
   101c8:	00000013          	nop
   101cc:	00000013          	nop
   101d0:	01c12083          	lw	ra,28(sp)
   101d4:	01812403          	lw	s0,24(sp)
   101d8:	02010113          	addi	sp,sp,32
   101dc:	00008067          	ret
   101e0:	fb010113          	addi	sp,sp,-80
   101e4:	04112623          	sw	ra,76(sp)
   101e8:	04812423          	sw	s0,72(sp)
   101ec:	05010413          	addi	s0,sp,80
   101f0:	faa42e23          	sw	a0,-68(s0)
   101f4:	fcc40793          	addi	a5,s0,-52
   101f8:	fef42623          	sw	a5,-20(s0)
   101fc:	fbc42783          	lw	a5,-68(s0)
   10200:	0607d263          	bgez	a5,0x10264
   10204:	02d00513          	li	a0,45
   10208:	f55ff0ef          	jal	ra,0x1015c
   1020c:	fbc42783          	lw	a5,-68(s0)
   10210:	40f007b3          	neg	a5,a5
   10214:	faf42e23          	sw	a5,-68(s0)
   10218:	04c0006f          	j	0x10264
   1021c:	fbc42783          	lw	a5,-68(s0)
   10220:	00a00593          	li	a1,10
   10224:	00078513          	mv	a0,a5
   10228:	524000ef          	jal	ra,0x1074c
   1022c:	00050793          	mv	a5,a0
   10230:	0ff7f713          	andi	a4,a5,255
   10234:	fec42783          	lw	a5,-20(s0)
   10238:	00178693          	addi	a3,a5,1
   1023c:	fed42623          	sw	a3,-20(s0)
   10240:	03070713          	addi	a4,a4,48
   10244:	0ff77713          	andi	a4,a4,255
   10248:	00e78023          	sb	a4,0(a5)
   1024c:	fbc42783          	lw	a5,-68(s0)
   10250:	00a00593          	li	a1,10
   10254:	00078513          	mv	a0,a5
   10258:	470000ef          	jal	ra,0x106c8
   1025c:	00050793          	mv	a5,a0
   10260:	faf42e23          	sw	a5,-68(s0)
   10264:	fbc42783          	lw	a5,-68(s0)
   10268:	fa079ae3          	bnez	a5,0x1021c
   1026c:	fcc40793          	addi	a5,s0,-52
   10270:	fec42703          	lw	a4,-20(s0)
   10274:	faf704e3          	beq	a4,a5,0x1021c
   10278:	0200006f          	j	0x10298
   1027c:	fec42783          	lw	a5,-20(s0)
   10280:	fff78793          	addi	a5,a5,-1
   10284:	fef42623          	sw	a5,-20(s0)
   10288:	fec42783          	lw	a5,-20(s0)
   1028c:	0007c783          	lbu	a5,0(a5)
   10290:	00078513          	mv	a0,a5
   10294:	ec9ff0ef          	jal	ra,0x1015c
   10298:	fcc40793          	addi	a5,s0,-52
   1029c:	fec42703          	lw	a4,-20(s0)
   102a0:	fcf71ee3          	bne	a4,a5,0x1027c
   102a4:	00000013          	nop
   102a8:	00000013          	nop
   102ac:	04c12083          	lw	ra,76(sp)
   102b0:	04812403          	lw	s0,72(sp)
   102b4:	05010113          	addi	sp,sp,80
   102b8:	00008067          	ret
   102bc:	fd010113          	addi	sp,sp,-48
   102c0:	02112623          	sw	ra,44(sp)
   102c4:	02812423          	sw	s0,40(sp)
   102c8:	03010413          	addi	s0,sp,48
   102cc:	fca42e23          	sw	a0,-36(s0)
   102d0:	fcb42c23          	sw	a1,-40(s0)
   102d4:	fd842783          	lw	a5,-40(s0)
   102d8:	fff78793          	addi	a5,a5,-1
   102dc:	00279793          	slli	a5,a5,0x2
   102e0:	fef42623          	sw	a5,-20(s0)
   102e4:	0380006f          	j	0x1031c
   102e8:	fec42783          	lw	a5,-20(s0)
   102ec:	fdc42703          	lw	a4,-36(s0)
   102f0:	00f757b3          	srl	a5,a4,a5
   102f4:	00f7f793          	andi	a5,a5,15
   102f8:	00000717          	auipc	a4,0x0
   102fc:	49470713          	addi	a4,a4,1172 # 0x1078c
   10300:	00f707b3          	add	a5,a4,a5
   10304:	0007c783          	lbu	a5,0(a5)
   10308:	00078513          	mv	a0,a5
   1030c:	e51ff0ef          	jal	ra,0x1015c
   10310:	fec42783          	lw	a5,-20(s0)
   10314:	ffc78793          	addi	a5,a5,-4
   10318:	fef42623          	sw	a5,-20(s0)
   1031c:	fec42783          	lw	a5,-20(s0)
   10320:	fc07d4e3          	bgez	a5,0x102e8
   10324:	00000013          	nop
   10328:	00000013          	nop
   1032c:	02c12083          	lw	ra,44(sp)
   10330:	02812403          	lw	s0,40(sp)
   10334:	03010113          	addi	sp,sp,48
   10338:	00008067          	ret
   1033c:	fb010113          	addi	sp,sp,-80
   10340:	02112623          	sw	ra,44(sp)
   10344:	02812423          	sw	s0,40(sp)
   10348:	03010413          	addi	s0,sp,48
   1034c:	fca42e23          	sw	a0,-36(s0)
   10350:	00b42223          	sw	a1,4(s0)
   10354:	00c42423          	sw	a2,8(s0)
   10358:	00d42623          	sw	a3,12(s0)
   1035c:	00e42823          	sw	a4,16(s0)
   10360:	00f42a23          	sw	a5,20(s0)
   10364:	01042c23          	sw	a6,24(s0)
   10368:	01142e23          	sw	a7,28(s0)
   1036c:	02040793          	addi	a5,s0,32
   10370:	fcf42c23          	sw	a5,-40(s0)
   10374:	fd842783          	lw	a5,-40(s0)
   10378:	fe478793          	addi	a5,a5,-28
   1037c:	fef42423          	sw	a5,-24(s0)
   10380:	fe042623          	sw	zero,-20(s0)
   10384:	20c0006f          	j	0x10590
   10388:	fec42783          	lw	a5,-20(s0)
   1038c:	fdc42703          	lw	a4,-36(s0)
   10390:	00f707b3          	add	a5,a4,a5
   10394:	0007c703          	lbu	a4,0(a5)
   10398:	02500793          	li	a5,37
   1039c:	1cf71863          	bne	a4,a5,0x1056c
   103a0:	1a80006f          	j	0x10548
   103a4:	fec42783          	lw	a5,-20(s0)
   103a8:	fdc42703          	lw	a4,-36(s0)
   103ac:	00f707b3          	add	a5,a4,a5
   103b0:	0007c703          	lbu	a4,0(a5)
   103b4:	06300793          	li	a5,99
   103b8:	02f71063          	bne	a4,a5,0x103d8
   103bc:	fe842783          	lw	a5,-24(s0)
   103c0:	00478713          	addi	a4,a5,4
   103c4:	fee42423          	sw	a4,-24(s0)
   103c8:	0007a783          	lw	a5,0(a5)
   103cc:	00078513          	mv	a0,a5
   103d0:	d8dff0ef          	jal	ra,0x1015c
   103d4:	1b00006f          	j	0x10584
   103d8:	fec42783          	lw	a5,-20(s0)
   103dc:	fdc42703          	lw	a4,-36(s0)
   103e0:	00f707b3          	add	a5,a4,a5
   103e4:	0007c703          	lbu	a4,0(a5)
   103e8:	07300793          	li	a5,115
   103ec:	02f71063          	bne	a4,a5,0x1040c
   103f0:	fe842783          	lw	a5,-24(s0)
   103f4:	00478713          	addi	a4,a5,4
   103f8:	fee42423          	sw	a4,-24(s0)
   103fc:	0007a783          	lw	a5,0(a5)
   10400:	00078513          	mv	a0,a5
   10404:	d89ff0ef          	jal	ra,0x1018c
   10408:	17c0006f          	j	0x10584
   1040c:	fec42783          	lw	a5,-20(s0)
   10410:	fdc42703          	lw	a4,-36(s0)
   10414:	00f707b3          	add	a5,a4,a5
   10418:	0007c703          	lbu	a4,0(a5)
   1041c:	06400793          	li	a5,100
   10420:	02f71063          	bne	a4,a5,0x10440
   10424:	fe842783          	lw	a5,-24(s0)
   10428:	00478713          	addi	a4,a5,4
   1042c:	fee42423          	sw	a4,-24(s0)
   10430:	0007a783          	lw	a5,0(a5)
   10434:	00078513          	mv	a0,a5
   10438:	da9ff0ef          	jal	ra,0x101e0
   1043c:	1480006f          	j	0x10584
   10440:	fec42783          	lw	a5,-20(s0)
   10444:	fdc42703          	lw	a4,-36(s0)
   10448:	00f707b3          	add	a5,a4,a5
   1044c:	0007c703          	lbu	a4,0(a5)
   10450:	07500793          	li	a5,117
   10454:	02f71063          	bne	a4,a5,0x10474
   10458:	fe842783          	lw	a5,-24(s0)
   1045c:	00478713          	addi	a4,a5,4
   10460:	fee42423          	sw	a4,-24(s0)
   10464:	0007a783          	lw	a5,0(a5)
   10468:	00078513          	mv	a0,a5
   1046c:	d75ff0ef          	jal	ra,0x101e0
   10470:	1140006f          	j	0x10584
   10474:	fec42783          	lw	a5,-20(s0)
   10478:	fdc42703          	lw	a4,-36(s0)
   1047c:	00f707b3          	add	a5,a4,a5
   10480:	0007c703          	lbu	a4,0(a5)
   10484:	06c00793          	li	a5,108
   10488:	06f71263          	bne	a4,a5,0x104ec
   1048c:	fec42783          	lw	a5,-20(s0)
   10490:	00178793          	addi	a5,a5,1
   10494:	fdc42703          	lw	a4,-36(s0)
   10498:	00f707b3          	add	a5,a4,a5
   1049c:	0007c703          	lbu	a4,0(a5)
   104a0:	07500793          	li	a5,117
   104a4:	02f71663          	bne	a4,a5,0x104d0
   104a8:	fec42783          	lw	a5,-20(s0)
   104ac:	00178793          	addi	a5,a5,1
   104b0:	fef42623          	sw	a5,-20(s0)
   104b4:	fe842783          	lw	a5,-24(s0)
   104b8:	00478713          	addi	a4,a5,4
   104bc:	fee42423          	sw	a4,-24(s0)
   104c0:	0007a783          	lw	a5,0(a5)
   104c4:	00078513          	mv	a0,a5
   104c8:	d19ff0ef          	jal	ra,0x101e0
   104cc:	0b80006f          	j	0x10584
   104d0:	fe842783          	lw	a5,-24(s0)
   104d4:	00478713          	addi	a4,a5,4
   104d8:	fee42423          	sw	a4,-24(s0)
   104dc:	0007a783          	lw	a5,0(a5)
   104e0:	00078513          	mv	a0,a5
   104e4:	cfdff0ef          	jal	ra,0x101e0
   104e8:	09c0006f          	j	0x10584
   104ec:	fec42783          	lw	a5,-20(s0)
   104f0:	fdc42703          	lw	a4,-36(s0)
   104f4:	00f707b3          	add	a5,a4,a5
   104f8:	0007c703          	lbu	a4,0(a5)
   104fc:	03000793          	li	a5,48
   10500:	04f71463          	bne	a4,a5,0x10548
   10504:	fe842783          	lw	a5,-24(s0)
   10508:	00478713          	addi	a4,a5,4
   1050c:	fee42423          	sw	a4,-24(s0)
   10510:	0007a683          	lw	a3,0(a5)
   10514:	fec42783          	lw	a5,-20(s0)
   10518:	00178793          	addi	a5,a5,1
   1051c:	fdc42703          	lw	a4,-36(s0)
   10520:	00f707b3          	add	a5,a4,a5
   10524:	0007c783          	lbu	a5,0(a5)
   10528:	fd078793          	addi	a5,a5,-48
   1052c:	00078593          	mv	a1,a5
   10530:	00068513          	mv	a0,a3
   10534:	d89ff0ef          	jal	ra,0x102bc
   10538:	fec42783          	lw	a5,-20(s0)
   1053c:	00278793          	addi	a5,a5,2
   10540:	fef42623          	sw	a5,-20(s0)
   10544:	0400006f          	j	0x10584
   10548:	fec42783          	lw	a5,-20(s0)
   1054c:	00178793          	addi	a5,a5,1
   10550:	fef42623          	sw	a5,-20(s0)
   10554:	fec42783          	lw	a5,-20(s0)
   10558:	fdc42703          	lw	a4,-36(s0)
   1055c:	00f707b3          	add	a5,a4,a5
   10560:	0007c783          	lbu	a5,0(a5)
   10564:	e40790e3          	bnez	a5,0x103a4
   10568:	01c0006f          	j	0x10584
   1056c:	fec42783          	lw	a5,-20(s0)
   10570:	fdc42703          	lw	a4,-36(s0)
   10574:	00f707b3          	add	a5,a4,a5
   10578:	0007c783          	lbu	a5,0(a5)
   1057c:	00078513          	mv	a0,a5
   10580:	bddff0ef          	jal	ra,0x1015c
   10584:	fec42783          	lw	a5,-20(s0)
   10588:	00178793          	addi	a5,a5,1
   1058c:	fef42623          	sw	a5,-20(s0)
   10590:	fec42783          	lw	a5,-20(s0)
   10594:	fdc42703          	lw	a4,-36(s0)
   10598:	00f707b3          	add	a5,a4,a5
   1059c:	0007c783          	lbu	a5,0(a5)
   105a0:	de0794e3          	bnez	a5,0x10388
   105a4:	00000013          	nop
   105a8:	00000013          	nop
   105ac:	02c12083          	lw	ra,44(sp)
   105b0:	02812403          	lw	s0,40(sp)
   105b4:	05010113          	addi	sp,sp,80
   105b8:	00008067          	ret
   105bc:	fe010113          	addi	sp,sp,-32
   105c0:	00112e23          	sw	ra,28(sp)
   105c4:	00812c23          	sw	s0,24(sp)
   105c8:	02010413          	addi	s0,sp,32
   105cc:	e00017b7          	lui	a5,0xe0001
   105d0:	02c78793          	addi	a5,a5,44 # 0xe000102c
   105d4:	fef42623          	sw	a5,-20(s0)
   105d8:	00000013          	nop
   105dc:	fec42783          	lw	a5,-20(s0)
   105e0:	0007a783          	lw	a5,0(a5)
   105e4:	0027f713          	andi	a4,a5,2
   105e8:	00200793          	li	a5,2
   105ec:	fef708e3          	beq	a4,a5,0x105dc
   105f0:	e00017b7          	lui	a5,0xe0001
   105f4:	03078793          	addi	a5,a5,48 # 0xe0001030
   105f8:	0007a783          	lw	a5,0(a5)
   105fc:	0ff7f793          	andi	a5,a5,255
   10600:	fef405a3          	sb	a5,-21(s0)
   10604:	feb44783          	lbu	a5,-21(s0)
   10608:	0ff7f793          	andi	a5,a5,255
   1060c:	00078513          	mv	a0,a5
   10610:	b4dff0ef          	jal	ra,0x1015c
   10614:	feb44783          	lbu	a5,-21(s0)
   10618:	0ff7f793          	andi	a5,a5,255
   1061c:	00078513          	mv	a0,a5
   10620:	01c12083          	lw	ra,28(sp)
   10624:	01812403          	lw	s0,24(sp)
   10628:	02010113          	addi	sp,sp,32
   1062c:	00008067          	ret
   10630:	fe010113          	addi	sp,sp,-32
   10634:	00112e23          	sw	ra,28(sp)
   10638:	00812c23          	sw	s0,24(sp)
   1063c:	02010413          	addi	s0,sp,32
   10640:	00000797          	auipc	a5,0x0
   10644:	16078793          	addi	a5,a5,352 # 0x107a0
   10648:	fef42623          	sw	a5,-20(s0)
   1064c:	fec42783          	lw	a5,-20(s0)
   10650:	fef42423          	sw	a5,-24(s0)
   10654:	f69ff0ef          	jal	ra,0x105bc
   10658:	00050793          	mv	a5,a0
   1065c:	fef403a3          	sb	a5,-25(s0)
   10660:	01c0006f          	j	0x1067c
   10664:	fec42783          	lw	a5,-20(s0)
   10668:	00178713          	addi	a4,a5,1
   1066c:	fee42623          	sw	a4,-20(s0)
   10670:	fe744703          	lbu	a4,-25(s0)
   10674:	0ff77713          	andi	a4,a4,255
   10678:	00e78023          	sb	a4,0(a5)
   1067c:	fe744783          	lbu	a5,-25(s0)
   10680:	0ff7f713          	andi	a4,a5,255
   10684:	06e00793          	li	a5,110
   10688:	fcf71ee3          	bne	a4,a5,0x10664
   1068c:	fe842783          	lw	a5,-24(s0)
   10690:	00078513          	mv	a0,a5
   10694:	01c12083          	lw	ra,28(sp)
   10698:	01812403          	lw	s0,24(sp)
   1069c:	02010113          	addi	sp,sp,32
   106a0:	00008067          	ret
   106a4:	00050613          	mv	a2,a0
   106a8:	00000513          	li	a0,0
   106ac:	0015f693          	andi	a3,a1,1
   106b0:	00068463          	beqz	a3,0x106b8
   106b4:	00c50533          	add	a0,a0,a2
   106b8:	0015d593          	srli	a1,a1,0x1
   106bc:	00161613          	slli	a2,a2,0x1
   106c0:	fe0596e3          	bnez	a1,0x106ac
   106c4:	00008067          	ret
   106c8:	06054063          	bltz	a0,0x10728
   106cc:	0605c663          	bltz	a1,0x10738
   106d0:	00058613          	mv	a2,a1
   106d4:	00050593          	mv	a1,a0
   106d8:	fff00513          	li	a0,-1
   106dc:	02060c63          	beqz	a2,0x10714
   106e0:	00100693          	li	a3,1
   106e4:	00b67a63          	bgeu	a2,a1,0x106f8
   106e8:	00c05863          	blez	a2,0x106f8
   106ec:	00161613          	slli	a2,a2,0x1
   106f0:	00169693          	slli	a3,a3,0x1
   106f4:	feb66ae3          	bltu	a2,a1,0x106e8
   106f8:	00000513          	li	a0,0
   106fc:	00c5e663          	bltu	a1,a2,0x10708
   10700:	40c585b3          	sub	a1,a1,a2
   10704:	00d56533          	or	a0,a0,a3
   10708:	0016d693          	srli	a3,a3,0x1
   1070c:	00165613          	srli	a2,a2,0x1
   10710:	fe0696e3          	bnez	a3,0x106fc
   10714:	00008067          	ret
   10718:	00008293          	mv	t0,ra
   1071c:	fb5ff0ef          	jal	ra,0x106d0
   10720:	00058513          	mv	a0,a1
   10724:	00028067          	jr	t0
   10728:	40a00533          	neg	a0,a0
   1072c:	00b04863          	bgtz	a1,0x1073c
   10730:	40b005b3          	neg	a1,a1
   10734:	f9dff06f          	j	0x106d0
   10738:	40b005b3          	neg	a1,a1
   1073c:	00008293          	mv	t0,ra
   10740:	f91ff0ef          	jal	ra,0x106d0
   10744:	40a00533          	neg	a0,a0
   10748:	00028067          	jr	t0
   1074c:	00008293          	mv	t0,ra
   10750:	0005ca63          	bltz	a1,0x10764
   10754:	00054c63          	bltz	a0,0x1076c
   10758:	f79ff0ef          	jal	ra,0x106d0
   1075c:	00058513          	mv	a0,a1
   10760:	00028067          	jr	t0
   10764:	40b005b3          	neg	a1,a1
   10768:	fe0558e3          	bgez	a0,0x10758
   1076c:	40a00533          	neg	a0,a0
   10770:	f61ff0ef          	jal	ra,0x106d0
   10774:	40b00533          	neg	a0,a1
   10778:	00028067          	jr	t0
