
K_1.elf:     file format elf32-littleriscv


Disassembly of section .text:

00010054 <.text>:
   10054:	fe010113          	addi	sp,sp,-32
   10058:	00112e23          	sw	ra,28(sp)
   1005c:	00812c23          	sw	s0,24(sp)
   10060:	02010413          	addi	s0,sp,32
   10064:	00001797          	auipc	a5,0x1
   10068:	a9078793          	addi	a5,a5,-1392 # 0x10af4
   1006c:	0007a783          	lw	a5,0(a5)
   10070:	fef42623          	sw	a5,-20(s0)
   10074:	00001797          	auipc	a5,0x1
   10078:	a8478793          	addi	a5,a5,-1404 # 0x10af8
   1007c:	0007a783          	lw	a5,0(a5)
   10080:	fef42423          	sw	a5,-24(s0)
   10084:	fe842583          	lw	a1,-24(s0)
   10088:	fec42503          	lw	a0,-20(s0)
   1008c:	590000ef          	jal	ra,0x1061c
   10090:	00050793          	mv	a5,a0
   10094:	00078713          	mv	a4,a5
   10098:	00001797          	auipc	a5,0x1
   1009c:	a6478793          	addi	a5,a5,-1436 # 0x10afc
   100a0:	0007a583          	lw	a1,0(a5)
   100a4:	00070513          	mv	a0,a4
   100a8:	574000ef          	jal	ra,0x1061c
   100ac:	00050793          	mv	a5,a0
   100b0:	00078513          	mv	a0,a5
   100b4:	099000ef          	jal	ra,0x1094c
   100b8:	00050793          	mv	a5,a0
   100bc:	fef42223          	sw	a5,-28(s0)
   100c0:	fe442583          	lw	a1,-28(s0)
   100c4:	00001517          	auipc	a0,0x1
   100c8:	a1c50513          	addi	a0,a0,-1508 # 0x10ae0
   100cc:	1e8000ef          	jal	ra,0x102b4
   100d0:	0000006f          	j	0x100d0
   100d4:	fe010113          	addi	sp,sp,-32
   100d8:	00812e23          	sw	s0,28(sp)
   100dc:	02010413          	addi	s0,sp,32
   100e0:	fea42623          	sw	a0,-20(s0)
   100e4:	e00017b7          	lui	a5,0xe0001
   100e8:	03078793          	addi	a5,a5,48 # 0xe0001030
   100ec:	fec42703          	lw	a4,-20(s0)
   100f0:	00e7a023          	sw	a4,0(a5)
   100f4:	00000013          	nop
   100f8:	01c12403          	lw	s0,28(sp)
   100fc:	02010113          	addi	sp,sp,32
   10100:	00008067          	ret
   10104:	fe010113          	addi	sp,sp,-32
   10108:	00112e23          	sw	ra,28(sp)
   1010c:	00812c23          	sw	s0,24(sp)
   10110:	02010413          	addi	s0,sp,32
   10114:	fea42623          	sw	a0,-20(s0)
   10118:	01c0006f          	j	0x10134
   1011c:	fec42783          	lw	a5,-20(s0)
   10120:	00178713          	addi	a4,a5,1
   10124:	fee42623          	sw	a4,-20(s0)
   10128:	0007c783          	lbu	a5,0(a5)
   1012c:	00078513          	mv	a0,a5
   10130:	fa5ff0ef          	jal	ra,0x100d4
   10134:	fec42783          	lw	a5,-20(s0)
   10138:	0007c783          	lbu	a5,0(a5)
   1013c:	fe0790e3          	bnez	a5,0x1011c
   10140:	00000013          	nop
   10144:	00000013          	nop
   10148:	01c12083          	lw	ra,28(sp)
   1014c:	01812403          	lw	s0,24(sp)
   10150:	02010113          	addi	sp,sp,32
   10154:	00008067          	ret
   10158:	fb010113          	addi	sp,sp,-80
   1015c:	04112623          	sw	ra,76(sp)
   10160:	04812423          	sw	s0,72(sp)
   10164:	05010413          	addi	s0,sp,80
   10168:	faa42e23          	sw	a0,-68(s0)
   1016c:	fcc40793          	addi	a5,s0,-52
   10170:	fef42623          	sw	a5,-20(s0)
   10174:	fbc42783          	lw	a5,-68(s0)
   10178:	0607d263          	bgez	a5,0x101dc
   1017c:	02d00513          	li	a0,45
   10180:	f55ff0ef          	jal	ra,0x100d4
   10184:	fbc42783          	lw	a5,-68(s0)
   10188:	40f007b3          	neg	a5,a5
   1018c:	faf42e23          	sw	a5,-68(s0)
   10190:	04c0006f          	j	0x101dc
   10194:	fbc42783          	lw	a5,-68(s0)
   10198:	00a00593          	li	a1,10
   1019c:	00078513          	mv	a0,a5
   101a0:	0c5000ef          	jal	ra,0x10a64
   101a4:	00050793          	mv	a5,a0
   101a8:	0ff7f713          	andi	a4,a5,255
   101ac:	fec42783          	lw	a5,-20(s0)
   101b0:	00178693          	addi	a3,a5,1
   101b4:	fed42623          	sw	a3,-20(s0)
   101b8:	03070713          	addi	a4,a4,48
   101bc:	0ff77713          	andi	a4,a4,255
   101c0:	00e78023          	sb	a4,0(a5)
   101c4:	fbc42783          	lw	a5,-68(s0)
   101c8:	00a00593          	li	a1,10
   101cc:	00078513          	mv	a0,a5
   101d0:	011000ef          	jal	ra,0x109e0
   101d4:	00050793          	mv	a5,a0
   101d8:	faf42e23          	sw	a5,-68(s0)
   101dc:	fbc42783          	lw	a5,-68(s0)
   101e0:	fa079ae3          	bnez	a5,0x10194
   101e4:	fcc40793          	addi	a5,s0,-52
   101e8:	fec42703          	lw	a4,-20(s0)
   101ec:	faf704e3          	beq	a4,a5,0x10194
   101f0:	0200006f          	j	0x10210
   101f4:	fec42783          	lw	a5,-20(s0)
   101f8:	fff78793          	addi	a5,a5,-1
   101fc:	fef42623          	sw	a5,-20(s0)
   10200:	fec42783          	lw	a5,-20(s0)
   10204:	0007c783          	lbu	a5,0(a5)
   10208:	00078513          	mv	a0,a5
   1020c:	ec9ff0ef          	jal	ra,0x100d4
   10210:	fcc40793          	addi	a5,s0,-52
   10214:	fec42703          	lw	a4,-20(s0)
   10218:	fcf71ee3          	bne	a4,a5,0x101f4
   1021c:	00000013          	nop
   10220:	00000013          	nop
   10224:	04c12083          	lw	ra,76(sp)
   10228:	04812403          	lw	s0,72(sp)
   1022c:	05010113          	addi	sp,sp,80
   10230:	00008067          	ret
   10234:	fd010113          	addi	sp,sp,-48
   10238:	02112623          	sw	ra,44(sp)
   1023c:	02812423          	sw	s0,40(sp)
   10240:	03010413          	addi	s0,sp,48
   10244:	fca42e23          	sw	a0,-36(s0)
   10248:	fcb42c23          	sw	a1,-40(s0)
   1024c:	fd842783          	lw	a5,-40(s0)
   10250:	fff78793          	addi	a5,a5,-1
   10254:	00279793          	slli	a5,a5,0x2
   10258:	fef42623          	sw	a5,-20(s0)
   1025c:	0380006f          	j	0x10294
   10260:	fec42783          	lw	a5,-20(s0)
   10264:	fdc42703          	lw	a4,-36(s0)
   10268:	00f757b3          	srl	a5,a4,a5
   1026c:	00f7f793          	andi	a5,a5,15
   10270:	00001717          	auipc	a4,0x1
   10274:	89070713          	addi	a4,a4,-1904 # 0x10b00
   10278:	00f707b3          	add	a5,a4,a5
   1027c:	0007c783          	lbu	a5,0(a5)
   10280:	00078513          	mv	a0,a5
   10284:	e51ff0ef          	jal	ra,0x100d4
   10288:	fec42783          	lw	a5,-20(s0)
   1028c:	ffc78793          	addi	a5,a5,-4
   10290:	fef42623          	sw	a5,-20(s0)
   10294:	fec42783          	lw	a5,-20(s0)
   10298:	fc07d4e3          	bgez	a5,0x10260
   1029c:	00000013          	nop
   102a0:	00000013          	nop
   102a4:	02c12083          	lw	ra,44(sp)
   102a8:	02812403          	lw	s0,40(sp)
   102ac:	03010113          	addi	sp,sp,48
   102b0:	00008067          	ret
   102b4:	fb010113          	addi	sp,sp,-80
   102b8:	02112623          	sw	ra,44(sp)
   102bc:	02812423          	sw	s0,40(sp)
   102c0:	03010413          	addi	s0,sp,48
   102c4:	fca42e23          	sw	a0,-36(s0)
   102c8:	00b42223          	sw	a1,4(s0)
   102cc:	00c42423          	sw	a2,8(s0)
   102d0:	00d42623          	sw	a3,12(s0)
   102d4:	00e42823          	sw	a4,16(s0)
   102d8:	00f42a23          	sw	a5,20(s0)
   102dc:	01042c23          	sw	a6,24(s0)
   102e0:	01142e23          	sw	a7,28(s0)
   102e4:	02040793          	addi	a5,s0,32
   102e8:	fcf42c23          	sw	a5,-40(s0)
   102ec:	fd842783          	lw	a5,-40(s0)
   102f0:	fe478793          	addi	a5,a5,-28
   102f4:	fef42423          	sw	a5,-24(s0)
   102f8:	fe042623          	sw	zero,-20(s0)
   102fc:	20c0006f          	j	0x10508
   10300:	fec42783          	lw	a5,-20(s0)
   10304:	fdc42703          	lw	a4,-36(s0)
   10308:	00f707b3          	add	a5,a4,a5
   1030c:	0007c703          	lbu	a4,0(a5)
   10310:	02500793          	li	a5,37
   10314:	1cf71863          	bne	a4,a5,0x104e4
   10318:	1a80006f          	j	0x104c0
   1031c:	fec42783          	lw	a5,-20(s0)
   10320:	fdc42703          	lw	a4,-36(s0)
   10324:	00f707b3          	add	a5,a4,a5
   10328:	0007c703          	lbu	a4,0(a5)
   1032c:	06300793          	li	a5,99
   10330:	02f71063          	bne	a4,a5,0x10350
   10334:	fe842783          	lw	a5,-24(s0)
   10338:	00478713          	addi	a4,a5,4
   1033c:	fee42423          	sw	a4,-24(s0)
   10340:	0007a783          	lw	a5,0(a5)
   10344:	00078513          	mv	a0,a5
   10348:	d8dff0ef          	jal	ra,0x100d4
   1034c:	1b00006f          	j	0x104fc
   10350:	fec42783          	lw	a5,-20(s0)
   10354:	fdc42703          	lw	a4,-36(s0)
   10358:	00f707b3          	add	a5,a4,a5
   1035c:	0007c703          	lbu	a4,0(a5)
   10360:	07300793          	li	a5,115
   10364:	02f71063          	bne	a4,a5,0x10384
   10368:	fe842783          	lw	a5,-24(s0)
   1036c:	00478713          	addi	a4,a5,4
   10370:	fee42423          	sw	a4,-24(s0)
   10374:	0007a783          	lw	a5,0(a5)
   10378:	00078513          	mv	a0,a5
   1037c:	d89ff0ef          	jal	ra,0x10104
   10380:	17c0006f          	j	0x104fc
   10384:	fec42783          	lw	a5,-20(s0)
   10388:	fdc42703          	lw	a4,-36(s0)
   1038c:	00f707b3          	add	a5,a4,a5
   10390:	0007c703          	lbu	a4,0(a5)
   10394:	06400793          	li	a5,100
   10398:	02f71063          	bne	a4,a5,0x103b8
   1039c:	fe842783          	lw	a5,-24(s0)
   103a0:	00478713          	addi	a4,a5,4
   103a4:	fee42423          	sw	a4,-24(s0)
   103a8:	0007a783          	lw	a5,0(a5)
   103ac:	00078513          	mv	a0,a5
   103b0:	da9ff0ef          	jal	ra,0x10158
   103b4:	1480006f          	j	0x104fc
   103b8:	fec42783          	lw	a5,-20(s0)
   103bc:	fdc42703          	lw	a4,-36(s0)
   103c0:	00f707b3          	add	a5,a4,a5
   103c4:	0007c703          	lbu	a4,0(a5)
   103c8:	07500793          	li	a5,117
   103cc:	02f71063          	bne	a4,a5,0x103ec
   103d0:	fe842783          	lw	a5,-24(s0)
   103d4:	00478713          	addi	a4,a5,4
   103d8:	fee42423          	sw	a4,-24(s0)
   103dc:	0007a783          	lw	a5,0(a5)
   103e0:	00078513          	mv	a0,a5
   103e4:	d75ff0ef          	jal	ra,0x10158
   103e8:	1140006f          	j	0x104fc
   103ec:	fec42783          	lw	a5,-20(s0)
   103f0:	fdc42703          	lw	a4,-36(s0)
   103f4:	00f707b3          	add	a5,a4,a5
   103f8:	0007c703          	lbu	a4,0(a5)
   103fc:	06c00793          	li	a5,108
   10400:	06f71263          	bne	a4,a5,0x10464
   10404:	fec42783          	lw	a5,-20(s0)
   10408:	00178793          	addi	a5,a5,1
   1040c:	fdc42703          	lw	a4,-36(s0)
   10410:	00f707b3          	add	a5,a4,a5
   10414:	0007c703          	lbu	a4,0(a5)
   10418:	07500793          	li	a5,117
   1041c:	02f71663          	bne	a4,a5,0x10448
   10420:	fec42783          	lw	a5,-20(s0)
   10424:	00178793          	addi	a5,a5,1
   10428:	fef42623          	sw	a5,-20(s0)
   1042c:	fe842783          	lw	a5,-24(s0)
   10430:	00478713          	addi	a4,a5,4
   10434:	fee42423          	sw	a4,-24(s0)
   10438:	0007a783          	lw	a5,0(a5)
   1043c:	00078513          	mv	a0,a5
   10440:	d19ff0ef          	jal	ra,0x10158
   10444:	0b80006f          	j	0x104fc
   10448:	fe842783          	lw	a5,-24(s0)
   1044c:	00478713          	addi	a4,a5,4
   10450:	fee42423          	sw	a4,-24(s0)
   10454:	0007a783          	lw	a5,0(a5)
   10458:	00078513          	mv	a0,a5
   1045c:	cfdff0ef          	jal	ra,0x10158
   10460:	09c0006f          	j	0x104fc
   10464:	fec42783          	lw	a5,-20(s0)
   10468:	fdc42703          	lw	a4,-36(s0)
   1046c:	00f707b3          	add	a5,a4,a5
   10470:	0007c703          	lbu	a4,0(a5)
   10474:	03000793          	li	a5,48
   10478:	04f71463          	bne	a4,a5,0x104c0
   1047c:	fe842783          	lw	a5,-24(s0)
   10480:	00478713          	addi	a4,a5,4
   10484:	fee42423          	sw	a4,-24(s0)
   10488:	0007a683          	lw	a3,0(a5)
   1048c:	fec42783          	lw	a5,-20(s0)
   10490:	00178793          	addi	a5,a5,1
   10494:	fdc42703          	lw	a4,-36(s0)
   10498:	00f707b3          	add	a5,a4,a5
   1049c:	0007c783          	lbu	a5,0(a5)
   104a0:	fd078793          	addi	a5,a5,-48
   104a4:	00078593          	mv	a1,a5
   104a8:	00068513          	mv	a0,a3
   104ac:	d89ff0ef          	jal	ra,0x10234
   104b0:	fec42783          	lw	a5,-20(s0)
   104b4:	00278793          	addi	a5,a5,2
   104b8:	fef42623          	sw	a5,-20(s0)
   104bc:	0400006f          	j	0x104fc
   104c0:	fec42783          	lw	a5,-20(s0)
   104c4:	00178793          	addi	a5,a5,1
   104c8:	fef42623          	sw	a5,-20(s0)
   104cc:	fec42783          	lw	a5,-20(s0)
   104d0:	fdc42703          	lw	a4,-36(s0)
   104d4:	00f707b3          	add	a5,a4,a5
   104d8:	0007c783          	lbu	a5,0(a5)
   104dc:	e40790e3          	bnez	a5,0x1031c
   104e0:	01c0006f          	j	0x104fc
   104e4:	fec42783          	lw	a5,-20(s0)
   104e8:	fdc42703          	lw	a4,-36(s0)
   104ec:	00f707b3          	add	a5,a4,a5
   104f0:	0007c783          	lbu	a5,0(a5)
   104f4:	00078513          	mv	a0,a5
   104f8:	bddff0ef          	jal	ra,0x100d4
   104fc:	fec42783          	lw	a5,-20(s0)
   10500:	00178793          	addi	a5,a5,1
   10504:	fef42623          	sw	a5,-20(s0)
   10508:	fec42783          	lw	a5,-20(s0)
   1050c:	fdc42703          	lw	a4,-36(s0)
   10510:	00f707b3          	add	a5,a4,a5
   10514:	0007c783          	lbu	a5,0(a5)
   10518:	de0794e3          	bnez	a5,0x10300
   1051c:	00000013          	nop
   10520:	00000013          	nop
   10524:	02c12083          	lw	ra,44(sp)
   10528:	02812403          	lw	s0,40(sp)
   1052c:	05010113          	addi	sp,sp,80
   10530:	00008067          	ret
   10534:	fe010113          	addi	sp,sp,-32
   10538:	00112e23          	sw	ra,28(sp)
   1053c:	00812c23          	sw	s0,24(sp)
   10540:	02010413          	addi	s0,sp,32
   10544:	e00017b7          	lui	a5,0xe0001
   10548:	02c78793          	addi	a5,a5,44 # 0xe000102c
   1054c:	fef42623          	sw	a5,-20(s0)
   10550:	00000013          	nop
   10554:	fec42783          	lw	a5,-20(s0)
   10558:	0007a783          	lw	a5,0(a5)
   1055c:	0027f713          	andi	a4,a5,2
   10560:	00200793          	li	a5,2
   10564:	fef708e3          	beq	a4,a5,0x10554
   10568:	e00017b7          	lui	a5,0xe0001
   1056c:	03078793          	addi	a5,a5,48 # 0xe0001030
   10570:	0007a783          	lw	a5,0(a5)
   10574:	0ff7f793          	andi	a5,a5,255
   10578:	fef405a3          	sb	a5,-21(s0)
   1057c:	feb44783          	lbu	a5,-21(s0)
   10580:	0ff7f793          	andi	a5,a5,255
   10584:	00078513          	mv	a0,a5
   10588:	b4dff0ef          	jal	ra,0x100d4
   1058c:	feb44783          	lbu	a5,-21(s0)
   10590:	0ff7f793          	andi	a5,a5,255
   10594:	00078513          	mv	a0,a5
   10598:	01c12083          	lw	ra,28(sp)
   1059c:	01812403          	lw	s0,24(sp)
   105a0:	02010113          	addi	sp,sp,32
   105a4:	00008067          	ret
   105a8:	fe010113          	addi	sp,sp,-32
   105ac:	00112e23          	sw	ra,28(sp)
   105b0:	00812c23          	sw	s0,24(sp)
   105b4:	02010413          	addi	s0,sp,32
   105b8:	00000797          	auipc	a5,0x0
   105bc:	55c78793          	addi	a5,a5,1372 # 0x10b14
   105c0:	fef42623          	sw	a5,-20(s0)
   105c4:	fec42783          	lw	a5,-20(s0)
   105c8:	fef42423          	sw	a5,-24(s0)
   105cc:	f69ff0ef          	jal	ra,0x10534
   105d0:	00050793          	mv	a5,a0
   105d4:	fef403a3          	sb	a5,-25(s0)
   105d8:	01c0006f          	j	0x105f4
   105dc:	fec42783          	lw	a5,-20(s0)
   105e0:	00178713          	addi	a4,a5,1
   105e4:	fee42623          	sw	a4,-20(s0)
   105e8:	fe744703          	lbu	a4,-25(s0)
   105ec:	0ff77713          	andi	a4,a4,255
   105f0:	00e78023          	sb	a4,0(a5)
   105f4:	fe744783          	lbu	a5,-25(s0)
   105f8:	0ff7f713          	andi	a4,a5,255
   105fc:	06e00793          	li	a5,110
   10600:	fcf71ee3          	bne	a4,a5,0x105dc
   10604:	fe842783          	lw	a5,-24(s0)
   10608:	00078513          	mv	a0,a5
   1060c:	01c12083          	lw	ra,28(sp)
   10610:	01812403          	lw	s0,24(sp)
   10614:	02010113          	addi	sp,sp,32
   10618:	00008067          	ret
   1061c:	fe010113          	addi	sp,sp,-32
   10620:	01212823          	sw	s2,16(sp)
   10624:	01755913          	srli	s2,a0,0x17
   10628:	00912a23          	sw	s1,20(sp)
   1062c:	01312623          	sw	s3,12(sp)
   10630:	01412423          	sw	s4,8(sp)
   10634:	00951493          	slli	s1,a0,0x9
   10638:	00112e23          	sw	ra,28(sp)
   1063c:	00812c23          	sw	s0,24(sp)
   10640:	01512223          	sw	s5,4(sp)
   10644:	0ff97913          	andi	s2,s2,255
   10648:	00058a13          	mv	s4,a1
   1064c:	0094d493          	srli	s1,s1,0x9
   10650:	01f55993          	srli	s3,a0,0x1f
   10654:	08090663          	beqz	s2,0x106e0
   10658:	0ff00793          	li	a5,255
   1065c:	0af90263          	beq	s2,a5,0x10700
   10660:	00349493          	slli	s1,s1,0x3
   10664:	040007b7          	lui	a5,0x4000
   10668:	00f4e4b3          	or	s1,s1,a5
   1066c:	f8190913          	addi	s2,s2,-127
   10670:	00000a93          	li	s5,0
   10674:	017a5513          	srli	a0,s4,0x17
   10678:	009a1413          	slli	s0,s4,0x9
   1067c:	0ff57513          	andi	a0,a0,255
   10680:	00945413          	srli	s0,s0,0x9
   10684:	01fa5a13          	srli	s4,s4,0x1f
   10688:	08050c63          	beqz	a0,0x10720
   1068c:	0ff00793          	li	a5,255
   10690:	0af50863          	beq	a0,a5,0x10740
   10694:	00341413          	slli	s0,s0,0x3
   10698:	040007b7          	lui	a5,0x4000
   1069c:	00f46433          	or	s0,s0,a5
   106a0:	f8150513          	addi	a0,a0,-127
   106a4:	00000793          	li	a5,0
   106a8:	002a9713          	slli	a4,s5,0x2
   106ac:	00f76733          	or	a4,a4,a5
   106b0:	00a90933          	add	s2,s2,a0
   106b4:	fff70713          	addi	a4,a4,-1
   106b8:	00e00693          	li	a3,14
   106bc:	0149c833          	xor	a6,s3,s4
   106c0:	00190893          	addi	a7,s2,1
   106c4:	08e6ee63          	bltu	a3,a4,0x10760
   106c8:	000116b7          	lui	a3,0x11
   106cc:	00271713          	slli	a4,a4,0x2
   106d0:	b1868693          	addi	a3,a3,-1256 # 0x10b18
   106d4:	00d70733          	add	a4,a4,a3
   106d8:	00072703          	lw	a4,0(a4)
   106dc:	00070067          	jr	a4
   106e0:	02048a63          	beqz	s1,0x10714
   106e4:	00048513          	mv	a0,s1
   106e8:	3ac000ef          	jal	ra,0x10a94
   106ec:	ffb50793          	addi	a5,a0,-5
   106f0:	f8a00913          	li	s2,-118
   106f4:	00f494b3          	sll	s1,s1,a5
   106f8:	40a90933          	sub	s2,s2,a0
   106fc:	f75ff06f          	j	0x10670
   10700:	0ff00913          	li	s2,255
   10704:	00200a93          	li	s5,2
   10708:	f60486e3          	beqz	s1,0x10674
   1070c:	00300a93          	li	s5,3
   10710:	f65ff06f          	j	0x10674
   10714:	00000913          	li	s2,0
   10718:	00100a93          	li	s5,1
   1071c:	f59ff06f          	j	0x10674
   10720:	02040a63          	beqz	s0,0x10754
   10724:	00040513          	mv	a0,s0
   10728:	36c000ef          	jal	ra,0x10a94
   1072c:	ffb50793          	addi	a5,a0,-5
   10730:	00f41433          	sll	s0,s0,a5
   10734:	f8a00793          	li	a5,-118
   10738:	40a78533          	sub	a0,a5,a0
   1073c:	f69ff06f          	j	0x106a4
   10740:	0ff00513          	li	a0,255
   10744:	00200793          	li	a5,2
   10748:	f60400e3          	beqz	s0,0x106a8
   1074c:	00300793          	li	a5,3
   10750:	f59ff06f          	j	0x106a8
   10754:	00000513          	li	a0,0
   10758:	00100793          	li	a5,1
   1075c:	f4dff06f          	j	0x106a8
   10760:	00010f37          	lui	t5,0x10
   10764:	ffff0e93          	addi	t4,t5,-1 # 0xffff
   10768:	0104df93          	srli	t6,s1,0x10
   1076c:	01045793          	srli	a5,s0,0x10
   10770:	01d4f4b3          	and	s1,s1,t4
   10774:	01d47433          	and	s0,s0,t4
   10778:	00048513          	mv	a0,s1
   1077c:	00040593          	mv	a1,s0
   10780:	23c000ef          	jal	ra,0x109bc
   10784:	00050313          	mv	t1,a0
   10788:	00078593          	mv	a1,a5
   1078c:	00048513          	mv	a0,s1
   10790:	22c000ef          	jal	ra,0x109bc
   10794:	00050e13          	mv	t3,a0
   10798:	00040593          	mv	a1,s0
   1079c:	000f8513          	mv	a0,t6
   107a0:	21c000ef          	jal	ra,0x109bc
   107a4:	00050713          	mv	a4,a0
   107a8:	00078593          	mv	a1,a5
   107ac:	000f8513          	mv	a0,t6
   107b0:	20c000ef          	jal	ra,0x109bc
   107b4:	01035793          	srli	a5,t1,0x10
   107b8:	00ee0e33          	add	t3,t3,a4
   107bc:	01c787b3          	add	a5,a5,t3
   107c0:	00e7f463          	bgeu	a5,a4,0x107c8
   107c4:	01e50533          	add	a0,a0,t5
   107c8:	01d7f733          	and	a4,a5,t4
   107cc:	01071713          	slli	a4,a4,0x10
   107d0:	01d37333          	and	t1,t1,t4
   107d4:	00670733          	add	a4,a4,t1
   107d8:	00671413          	slli	s0,a4,0x6
   107dc:	00803433          	snez	s0,s0
   107e0:	0107d793          	srli	a5,a5,0x10
   107e4:	01a75713          	srli	a4,a4,0x1a
   107e8:	00e46733          	or	a4,s0,a4
   107ec:	00a78433          	add	s0,a5,a0
   107f0:	00641413          	slli	s0,s0,0x6
   107f4:	00e46433          	or	s0,s0,a4
   107f8:	080007b7          	lui	a5,0x8000
   107fc:	00f477b3          	and	a5,s0,a5
   10800:	08078e63          	beqz	a5,0x1089c
   10804:	00145793          	srli	a5,s0,0x1
   10808:	00147413          	andi	s0,s0,1
   1080c:	0087e433          	or	s0,a5,s0
   10810:	07f88713          	addi	a4,a7,127
   10814:	08e05863          	blez	a4,0x108a4
   10818:	00747793          	andi	a5,s0,7
   1081c:	00078a63          	beqz	a5,0x10830
   10820:	00f47793          	andi	a5,s0,15
   10824:	00400693          	li	a3,4
   10828:	00d78463          	beq	a5,a3,0x10830
   1082c:	00440413          	addi	s0,s0,4
   10830:	080007b7          	lui	a5,0x8000
   10834:	00f477b3          	and	a5,s0,a5
   10838:	00078a63          	beqz	a5,0x1084c
   1083c:	f80007b7          	lui	a5,0xf8000
   10840:	fff78793          	addi	a5,a5,-1 # 0xf7ffffff
   10844:	00f47433          	and	s0,s0,a5
   10848:	08088713          	addi	a4,a7,128
   1084c:	0fe00793          	li	a5,254
   10850:	00345413          	srli	s0,s0,0x3
   10854:	0ae7da63          	bge	a5,a4,0x10908
   10858:	00000413          	li	s0,0
   1085c:	0ff00713          	li	a4,255
   10860:	0a80006f          	j	0x10908
   10864:	00098813          	mv	a6,s3
   10868:	00048413          	mv	s0,s1
   1086c:	000a8793          	mv	a5,s5
   10870:	00200713          	li	a4,2
   10874:	fee782e3          	beq	a5,a4,0x10858
   10878:	00300713          	li	a4,3
   1087c:	08e78063          	beq	a5,a4,0x108fc
   10880:	00100713          	li	a4,1
   10884:	f8e796e3          	bne	a5,a4,0x10810
   10888:	00000413          	li	s0,0
   1088c:	00000713          	li	a4,0
   10890:	0780006f          	j	0x10908
   10894:	000a0813          	mv	a6,s4
   10898:	fd9ff06f          	j	0x10870
   1089c:	00090893          	mv	a7,s2
   108a0:	f71ff06f          	j	0x10810
   108a4:	00100793          	li	a5,1
   108a8:	40e787b3          	sub	a5,a5,a4
   108ac:	01b00713          	li	a4,27
   108b0:	fcf74ce3          	blt	a4,a5,0x10888
   108b4:	09e88893          	addi	a7,a7,158
   108b8:	00f457b3          	srl	a5,s0,a5
   108bc:	01141433          	sll	s0,s0,a7
   108c0:	00803433          	snez	s0,s0
   108c4:	0087e433          	or	s0,a5,s0
   108c8:	00747793          	andi	a5,s0,7
   108cc:	00078a63          	beqz	a5,0x108e0
   108d0:	00f47793          	andi	a5,s0,15
   108d4:	00400713          	li	a4,4
   108d8:	00e78463          	beq	a5,a4,0x108e0
   108dc:	00440413          	addi	s0,s0,4
   108e0:	040007b7          	lui	a5,0x4000
   108e4:	00f477b3          	and	a5,s0,a5
   108e8:	00345413          	srli	s0,s0,0x3
   108ec:	fa0780e3          	beqz	a5,0x1088c
   108f0:	00000413          	li	s0,0
   108f4:	00100713          	li	a4,1
   108f8:	0100006f          	j	0x10908
   108fc:	00400437          	lui	s0,0x400
   10900:	0ff00713          	li	a4,255
   10904:	00000813          	li	a6,0
   10908:	01771793          	slli	a5,a4,0x17
   1090c:	00941413          	slli	s0,s0,0x9
   10910:	7f800737          	lui	a4,0x7f800
   10914:	00e7f7b3          	and	a5,a5,a4
   10918:	00945413          	srli	s0,s0,0x9
   1091c:	0087e433          	or	s0,a5,s0
   10920:	01f81513          	slli	a0,a6,0x1f
   10924:	01c12083          	lw	ra,28(sp)
   10928:	00a46533          	or	a0,s0,a0
   1092c:	01812403          	lw	s0,24(sp)
   10930:	01412483          	lw	s1,20(sp)
   10934:	01012903          	lw	s2,16(sp)
   10938:	00c12983          	lw	s3,12(sp)
   1093c:	00812a03          	lw	s4,8(sp)
   10940:	00412a83          	lw	s5,4(sp)
   10944:	02010113          	addi	sp,sp,32
   10948:	00008067          	ret
   1094c:	00800637          	lui	a2,0x800
   10950:	01755713          	srli	a4,a0,0x17
   10954:	fff60793          	addi	a5,a2,-1 # 0x7fffff
   10958:	0ff77713          	andi	a4,a4,255
   1095c:	07e00593          	li	a1,126
   10960:	00a7f7b3          	and	a5,a5,a0
   10964:	01f55693          	srli	a3,a0,0x1f
   10968:	04e5d663          	bge	a1,a4,0x109b4
   1096c:	09d00593          	li	a1,157
   10970:	00e5da63          	bge	a1,a4,0x10984
   10974:	80000537          	lui	a0,0x80000
   10978:	fff54513          	not	a0,a0
   1097c:	00a68533          	add	a0,a3,a0
   10980:	00008067          	ret
   10984:	00c7e533          	or	a0,a5,a2
   10988:	09500793          	li	a5,149
   1098c:	00e7dc63          	bge	a5,a4,0x109a4
   10990:	f6a70713          	addi	a4,a4,-150 # 0x7f7fff6a
   10994:	00e51533          	sll	a0,a0,a4
   10998:	02068063          	beqz	a3,0x109b8
   1099c:	40a00533          	neg	a0,a0
   109a0:	00008067          	ret
   109a4:	09600793          	li	a5,150
   109a8:	40e78733          	sub	a4,a5,a4
   109ac:	00e55533          	srl	a0,a0,a4
   109b0:	fe9ff06f          	j	0x10998
   109b4:	00000513          	li	a0,0
   109b8:	00008067          	ret
   109bc:	00050613          	mv	a2,a0
   109c0:	00000513          	li	a0,0
   109c4:	0015f693          	andi	a3,a1,1
   109c8:	00068463          	beqz	a3,0x109d0
   109cc:	00c50533          	add	a0,a0,a2
   109d0:	0015d593          	srli	a1,a1,0x1
   109d4:	00161613          	slli	a2,a2,0x1
   109d8:	fe0596e3          	bnez	a1,0x109c4
   109dc:	00008067          	ret
   109e0:	06054063          	bltz	a0,0x10a40
   109e4:	0605c663          	bltz	a1,0x10a50
   109e8:	00058613          	mv	a2,a1
   109ec:	00050593          	mv	a1,a0
   109f0:	fff00513          	li	a0,-1
   109f4:	02060c63          	beqz	a2,0x10a2c
   109f8:	00100693          	li	a3,1
   109fc:	00b67a63          	bgeu	a2,a1,0x10a10
   10a00:	00c05863          	blez	a2,0x10a10
   10a04:	00161613          	slli	a2,a2,0x1
   10a08:	00169693          	slli	a3,a3,0x1
   10a0c:	feb66ae3          	bltu	a2,a1,0x10a00
   10a10:	00000513          	li	a0,0
   10a14:	00c5e663          	bltu	a1,a2,0x10a20
   10a18:	40c585b3          	sub	a1,a1,a2
   10a1c:	00d56533          	or	a0,a0,a3
   10a20:	0016d693          	srli	a3,a3,0x1
   10a24:	00165613          	srli	a2,a2,0x1
   10a28:	fe0696e3          	bnez	a3,0x10a14
   10a2c:	00008067          	ret
   10a30:	00008293          	mv	t0,ra
   10a34:	fb5ff0ef          	jal	ra,0x109e8
   10a38:	00058513          	mv	a0,a1
   10a3c:	00028067          	jr	t0
   10a40:	40a00533          	neg	a0,a0
   10a44:	00b04863          	bgtz	a1,0x10a54
   10a48:	40b005b3          	neg	a1,a1
   10a4c:	f9dff06f          	j	0x109e8
   10a50:	40b005b3          	neg	a1,a1
   10a54:	00008293          	mv	t0,ra
   10a58:	f91ff0ef          	jal	ra,0x109e8
   10a5c:	40a00533          	neg	a0,a0
   10a60:	00028067          	jr	t0
   10a64:	00008293          	mv	t0,ra
   10a68:	0005ca63          	bltz	a1,0x10a7c
   10a6c:	00054c63          	bltz	a0,0x10a84
   10a70:	f79ff0ef          	jal	ra,0x109e8
   10a74:	00058513          	mv	a0,a1
   10a78:	00028067          	jr	t0
   10a7c:	40b005b3          	neg	a1,a1
   10a80:	fe0558e3          	bgez	a0,0x10a70
   10a84:	40a00533          	neg	a0,a0
   10a88:	f61ff0ef          	jal	ra,0x109e8
   10a8c:	40b00533          	neg	a0,a1
   10a90:	00028067          	jr	t0
   10a94:	000107b7          	lui	a5,0x10
   10a98:	02f57a63          	bgeu	a0,a5,0x10acc
   10a9c:	0ff00793          	li	a5,255
   10aa0:	00a7b7b3          	sltu	a5,a5,a0
   10aa4:	00379793          	slli	a5,a5,0x3
   10aa8:	00011737          	lui	a4,0x11
   10aac:	02000693          	li	a3,32
   10ab0:	40f686b3          	sub	a3,a3,a5
   10ab4:	00f55533          	srl	a0,a0,a5
   10ab8:	b5470793          	addi	a5,a4,-1196 # 0x10b54
   10abc:	00a78533          	add	a0,a5,a0
   10ac0:	00054503          	lbu	a0,0(a0) # 0x80000000
   10ac4:	40a68533          	sub	a0,a3,a0
   10ac8:	00008067          	ret
   10acc:	01000737          	lui	a4,0x1000
   10ad0:	01000793          	li	a5,16
   10ad4:	fce56ae3          	bltu	a0,a4,0x10aa8
   10ad8:	01800793          	li	a5,24
   10adc:	fcdff06f          	j	0x10aa8